Certificate:
    Data:
        Version: 3 (0x2)
        Serial Number: 1 (0x1)
    Signature Algorithm: sha256WithRSAEncryption
        Issuer: C=DE, O=python-ldap, OU=slapd-test, CN=Python LDAP Test CA
        Validity
            Not Before: Nov 28 13:49:28 2017 GMT
            Not After : Nov 28 13:49:28 2021 GMT
        Subject: C=DE, O=python-ldap, OU=slapd-test, CN=Python LDAP Test CA
        Subject Public Key Info:
            Public Key Algorithm: rsaEncryption
                Public-Key: (2048 bit)
                Modulus:
                    00:b4:bd:47:78:d9:62:4e:8e:ae:18:53:b8:8e:9f:
                    0b:13:ea:f2:59:c0:1d:7f:0b:5c:5a:ed:c8:b8:cd:
                    ff:66:94:c4:40:d5:cd:4c:da:06:d2:35:1c:6a:c5:
                    76:70:6d:f0:81:8a:25:e4:35:c8:d5:79:17:3e:35:
                    ec:2b:97:73:77:6c:04:7f:1f:0b:b5:f3:fd:1a:cd:
                    76:2c:5c:17:45:6a:6d:c4:d1:6c:f8:09:ba:a0:f8:
                    57:44:d7:b4:1c:a4:be:a4:4b:e4:76:34:1c:b1:0b:
                    12:42:7e:79:e4:01:e0:5f:8f:6c:03:2d:2a:b6:4e:
                    72:85:f1:b9:ac:d5:22:a7:0a:fc:5a:0c:e5:75:8f:
                    9f:20:c2:14:ab:53:6a:b0:e6:8a:0d:f4:97:53:7f:
                    f7:79:29:dd:ea:df:ae:39:6f:59:d8:b3:8e:da:bf:
                    08:cd:03:ea:2a:91:33:c9:6f:21:a6:56:06:10:c1:
                    40:4b:31:95:b0:47:2a:1e:2f:7d:eb:9b:f1:d4:27:
                    af:1a:5d:bf:0f:b4:f5:d5:b8:1d:04:61:fa:06:af:
                    49:6f:ff:99:88:f3:44:16:ed:3b:f1:c8:ea:31:0a:
                    f3:f5:97:7a:17:08:e5:e8:8f:dd:1d:c8:8f:55:bf:
                    47:93:9a:be:84:99:6f:f3:99:61:5d:b7:13:56:34:
                    04:91
                Exponent: 65537 (0x10001)
        X509v3 extensions:
            X509v3 Basic Constraints: critical
                CA:TRUE
            X509v3 Key Usage: critical
                Certificate Sign, CRL Sign
            X509v3 Subject Key Identifier: 
                3D:80:E3:BB:94:97:DB:DD:DF:C8:1A:23:8A:CB:2B:C1:3D:1A:E6:85
            X509v3 Authority Key Identifier: 
                keyid:3D:80:E3:BB:94:97:DB:DD:DF:C8:1A:23:8A:CB:2B:C1:3D:1A:E6:85

    Signature Algorithm: sha256WithRSAEncryption
         03:d2:e6:f5:e4:1d:99:2e:df:02:b9:5b:f7:e0:82:ca:39:76:
         5c:8f:3d:f1:5f:d4:bd:1b:4b:4f:35:4b:5d:f6:21:8b:c0:87:
         23:de:7e:9d:93:1b:67:60:6d:df:7b:95:f0:6a:87:94:5c:f9:
         a3:62:50:7b:68:02:b0:5c:d2:4b:f9:b1:97:ba:24:84:47:6e:
         e1:e9:d6:e0:fa:2f:f7:9b:c5:67:3a:eb:8e:bc:b7:8f:31:7d:
         5c:ba:91:ce:9d:2c:91:85:32:74:e7:e9:ba:07:61:7c:8b:55:
         69:db:f9:7b:1d:ef:55:fc:bf:58:fc:99:66:9c:9e:92:35:75:
         53:0a:31:e1:34:8a:cf:bc:79:b0:0e:ac:bf:aa:f0:e3:74:88:
         f2:a6:5c:38:ad:21:31:ea:cd:e2:57:01:6b:9e:0b:24:62:78:
         ac:6a:88:ba:ae:be:20:27:63:ab:3b:e9:2c:c0:5c:81:c5:e7:
         e6:fe:a7:09:30:b4:28:65:51:6f:1b:1d:22:f8:30:7d:87:ae:
         da:28:99:5c:8b:15:f0:b7:45:d0:1d:3b:ad:c5:29:4a:ed:11:
         68:c4:af:28:a3:0b:9f:1b:c8:86:56:80:3d:6b:d3:1f:c6:b0:
         3d:4a:39:1c:10:57:2d:22:df:d7:7b:ad:7d:f9:12:47:bb:33:
         29:61:14:c4
-----BEGIN CERTIFICATE-----
MIIDijCCAnKgAwIBAgIBATANBgkqhkiG9w0BAQsFADBWMQswCQYDVQQGEwJERTEU
MBIGA1UECgwLcHl0aG9uLWxkYXAxEzARBgNVBAsMCnNsYXBkLXRlc3QxHDAaBgNV
BAMME1B5dGhvbiBMREFQIFRlc3QgQ0EwHhcNMTcxMTI4MTM0OTI4WhcNMjExMTI4
MTM0OTI4WjBWMQswCQYDVQQGEwJERTEUMBIGA1UECgwLcHl0aG9uLWxkYXAxEzAR
BgNVBAsMCnNsYXBkLXRlc3QxHDAaBgNVBAMME1B5dGhvbiBMREFQIFRlc3QgQ0Ew
ggEiMA0GCSqGSIb3DQEBAQUAA4IBDwAwggEKAoIBAQC0vUd42WJOjq4YU7iOnwsT
6vJZwB1/C1xa7ci4zf9mlMRA1c1M2gbSNRxqxXZwbfCBiiXkNcjVeRc+Newrl3N3
bAR/Hwu18/0azXYsXBdFam3E0Wz4Cbqg+FdE17QcpL6kS+R2NByxCxJCfnnkAeBf
j2wDLSq2TnKF8bms1SKnCvxaDOV1j58gwhSrU2qw5ooN9JdTf/d5Kd3q3645b1nY
s47avwjNA+oqkTPJbyGmVgYQwUBLMZWwRyoeL33rm/HUJ68aXb8PtPXVuB0EYfoG
r0lv/5mI80QW7TvxyOoxCvP1l3oXCOXoj90dyI9Vv0eTmr6EmW/zmWFdtxNWNASR
AgMBAAGjYzBhMA8GA1UdEwEB/wQFMAMBAf8wDgYDVR0PAQH/BAQDAgEGMB0GA1Ud
DgQWBBQ9gOO7lJfb3d/IGiOKyyvBPRrmhTAfBgNVHSMEGDAWgBQ9gOO7lJfb3d/I
GiOKyyvBPRrmhTANBgkqhkiG9w0BAQsFAAOCAQEAA9Lm9eQdmS7fArlb9+CCyjl2
XI898V/UvRtLTzVLXfYhi8CHI95+nZMbZ2Bt33uV8GqHlFz5o2JQe2gCsFzSS/mx
l7okhEdu4enW4Pov95vFZzrrjry3jzF9XLqRzp0skYUydOfpugdhfItVadv5ex3v
Vfy/WPyZZpyekjV1Uwox4TSKz7x5sA6sv6rw43SI8qZcOK0hMerN4lcBa54LJGJ4
rGqIuq6+ICdjqzvpLMBcgcXn5v6nCTC0KGVRbxsdIvgwfYeu2iiZXIsV8LdF0B07
rcUpSu0RaMSvKKMLnxvIhlaAPWvTH8awPUo5HBBXLSLf13utffkSR7szKWEUxA==
-----END CERTIFICATE-----
