Certificate:
    Data:
        Version: 3 (0x2)
        Serial Number: 3 (0x3)
    Signature Algorithm: sha256WithRSAEncryption
        Issuer: C=DE, O=python-ldap, OU=slapd-test, CN=Python LDAP Test CA
        Validity
            Not Before: Nov 28 13:49:28 2017 GMT
            Not After : Nov 28 13:49:28 2021 GMT
        Subject: C=DE, O=python-ldap, OU=slapd-test, CN=client
        Subject Public Key Info:
            Public Key Algorithm: rsaEncryption
                Public-Key: (2048 bit)
                Modulus:
                    00:b8:69:96:f5:59:f0:12:93:62:51:54:0c:05:30:
                    c4:02:24:d9:1b:04:38:fb:77:c4:1d:a9:23:1a:df:
                    68:e0:4c:6f:26:ff:43:79:45:81:a1:74:88:ba:cd:
                    57:8e:d8:69:ab:48:3b:91:77:d2:ef:e6:1a:ae:e9:
                    98:05:23:fa:d1:09:84:99:1e:b2:1e:e8:c5:d2:3a:
                    ce:99:64:a1:c8:79:06:24:65:c2:9a:ec:48:35:15:
                    64:0f:05:2e:75:14:98:d8:72:8b:68:1e:3e:6e:c7:
                    22:99:a4:e0:4c:0b:ad:ea:38:38:2a:ef:b1:b8:cd:
                    ca:88:29:5b:30:29:2d:f8:28:02:30:bc:10:00:52:
                    64:cc:b7:23:0e:38:48:7c:a1:99:b8:57:82:0b:a4:
                    51:4d:05:fb:3d:09:cc:8a:31:c0:2d:0a:21:57:39:
                    86:50:d0:6d:7a:13:1c:d3:e7:ad:05:33:13:26:08:
                    77:7c:1e:47:af:85:f8:05:94:a6:5b:f7:f6:ec:1c:
                    d6:fe:b6:f0:70:4d:03:66:79:49:78:82:73:c3:26:
                    4e:98:2c:11:88:b1:c0:48:9a:f4:91:26:ef:28:d3:
                    b6:99:06:f0:19:bd:18:4f:6b:98:97:fe:6b:67:96:
                    0d:29:0d:0f:63:88:61:4a:db:8a:81:54:f4:0a:b7:
                    01:e3
                Exponent: 65537 (0x10001)
        X509v3 extensions:
            X509v3 Basic Constraints: critical
                CA:FALSE
            X509v3 Key Usage: critical
                Digital Signature
            X509v3 Extended Key Usage: critical
                TLS Web Client Authentication
            X509v3 Subject Key Identifier: 
                C5:E2:E2:72:A6:55:C1:FB:D3:4B:11:01:D0:A0:AE:99:B6:8F:F1:39
            X509v3 Authority Key Identifier: 
                keyid:3D:80:E3:BB:94:97:DB:DD:DF:C8:1A:23:8A:CB:2B:C1:3D:1A:E6:85

    Signature Algorithm: sha256WithRSAEncryption
         11:76:03:a3:a6:9d:4e:3e:74:93:50:3b:31:d5:c7:d0:a8:34:
         84:01:6b:a2:08:cd:89:11:57:97:a2:e9:83:f0:a6:ef:03:8c:
         b2:8d:31:8f:ee:b3:c9:8c:49:1f:e4:fc:21:58:8d:22:c2:17:
         96:2e:b1:d1:64:03:d6:48:70:41:65:22:38:bf:9f:00:dd:a8:
         82:a0:df:22:e0:9a:1b:27:16:4b:db:7f:b0:fe:9f:a8:80:90:
         69:ad:35:be:e6:95:fe:f9:64:96:0a:d8:d7:8e:aa:63:fb:9a:
         d5:d0:e9:cb:8c:f3:08:c0:0c:26:72:c9:c6:29:5c:cf:3c:9e:
         e2:38:37:5a:16:2f:70:82:0b:e6:80:27:90:bd:81:b4:58:52:
         6c:4e:b7:77:fc:49:76:7a:4f:6c:ee:ff:02:1f:f4:49:6e:78:
         c3:fa:cd:ee:d3:e7:e5:05:a4:16:97:48:16:44:9f:81:1c:ac:
         a9:30:0e:1d:ea:15:32:d7:2b:1e:68:92:0a:9c:5b:b2:27:57:
         d3:21:3e:76:71:94:2d:da:76:61:aa:64:99:b7:54:1c:ba:e2:
         a5:b3:21:a4:a8:36:fe:5d:a3:73:6a:5e:77:af:ab:9a:d9:62:
         00:f0:fd:90:1e:b6:cc:57:5d:92:0d:16:16:97:78:48:27:fc:
         d9:2d:55:4d
-----BEGIN CERTIFICATE-----
MIIDkjCCAnqgAwIBAgIBAzANBgkqhkiG9w0BAQsFADBWMQswCQYDVQQGEwJERTEU
MBIGA1UECgwLcHl0aG9uLWxkYXAxEzARBgNVBAsMCnNsYXBkLXRlc3QxHDAaBgNV
BAMME1B5dGhvbiBMREFQIFRlc3QgQ0EwHhcNMTcxMTI4MTM0OTI4WhcNMjExMTI4
MTM0OTI4WjBJMQswCQYDVQQGEwJERTEUMBIGA1UECgwLcHl0aG9uLWxkYXAxEzAR
BgNVBAsMCnNsYXBkLXRlc3QxDzANBgNVBAMMBmNsaWVudDCCASIwDQYJKoZIhvcN
AQEBBQADggEPADCCAQoCggEBALhplvVZ8BKTYlFUDAUwxAIk2RsEOPt3xB2pIxrf
aOBMbyb/Q3lFgaF0iLrNV47YaatIO5F30u/mGq7pmAUj+tEJhJkesh7oxdI6zplk
och5BiRlwprsSDUVZA8FLnUUmNhyi2gePm7HIpmk4EwLreo4OCrvsbjNyogpWzAp
LfgoAjC8EABSZMy3Iw44SHyhmbhXggukUU0F+z0JzIoxwC0KIVc5hlDQbXoTHNPn
rQUzEyYId3weR6+F+AWUplv39uwc1v628HBNA2Z5SXiCc8MmTpgsEYixwEia9JEm
7yjTtpkG8Bm9GE9rmJf+a2eWDSkND2OIYUrbioFU9Aq3AeMCAwEAAaN4MHYwDAYD
VR0TAQH/BAIwADAOBgNVHQ8BAf8EBAMCB4AwFgYDVR0lAQH/BAwwCgYIKwYBBQUH
AwIwHQYDVR0OBBYEFMXi4nKmVcH700sRAdCgrpm2j/E5MB8GA1UdIwQYMBaAFD2A
47uUl9vd38gaI4rLK8E9GuaFMA0GCSqGSIb3DQEBCwUAA4IBAQARdgOjpp1OPnST
UDsx1cfQqDSEAWuiCM2JEVeXoumD8KbvA4yyjTGP7rPJjEkf5PwhWI0iwheWLrHR
ZAPWSHBBZSI4v58A3aiCoN8i4JobJxZL23+w/p+ogJBprTW+5pX++WSWCtjXjqpj
+5rV0OnLjPMIwAwmcsnGKVzPPJ7iODdaFi9wggvmgCeQvYG0WFJsTrd3/El2ek9s
7v8CH/RJbnjD+s3u0+flBaQWl0gWRJ+BHKypMA4d6hUy1yseaJIKnFuyJ1fTIT52
cZQt2nZhqmSZt1QcuuKlsyGkqDb+XaNzal53r6ua2WIA8P2QHrbMV12SDRYWl3hI
J/zZLVVN
-----END CERTIFICATE-----
