Certificate:
    Data:
        Version: 3 (0x2)
        Serial Number: 2 (0x2)
    Signature Algorithm: sha256WithRSAEncryption
        Issuer: C=DE, O=python-ldap, OU=slapd-test, CN=Python LDAP Test CA
        Validity
            Not Before: Nov 28 13:49:28 2017 GMT
            Not After : Nov 28 13:49:28 2021 GMT
        Subject: C=DE, O=python-ldap, OU=slapd-test, CN=server cert for localhost
        Subject Public Key Info:
            Public Key Algorithm: rsaEncryption
                Public-Key: (2048 bit)
                Modulus:
                    00:d3:24:e0:27:65:d3:e7:09:39:b2:82:42:39:5d:
                    41:ec:ba:4d:71:2f:87:9e:3f:13:1c:57:ef:07:60:
                    c7:d0:87:e6:f7:e7:80:b2:81:09:d1:72:38:f7:f2:
                    e4:3a:4b:bd:26:38:8c:82:ad:35:8a:36:b7:9c:56:
                    b9:d5:d3:1b:b8:a3:5e:80:91:24:6b:90:dd:00:56:
                    97:d6:93:46:9e:d8:66:9c:70:35:7e:a3:cd:b1:f8:
                    d0:52:b5:f6:0d:5d:6d:b1:67:56:99:23:21:69:94:
                    64:d4:cb:14:02:a6:c5:38:c8:25:fb:44:ce:d8:c2:
                    ad:df:33:a6:fc:7a:84:76:8d:13:46:0b:fb:8c:74:
                    d3:7f:ed:62:64:1d:f8:49:14:e6:05:a4:f2:7a:bc:
                    a3:a5:47:73:cf:ab:39:23:f1:64:6e:fe:29:65:eb:
                    7f:a9:84:70:37:50:45:30:78:a1:b8:0e:86:8f:f3:
                    93:34:5a:a1:d6:e0:ab:e9:d0:0e:2c:23:9b:8f:60:
                    8d:a5:3e:b0:ea:51:fe:8b:59:cd:b6:81:4a:5c:14:
                    53:43:45:e5:98:73:12:e8:6c:2b:00:79:3e:12:aa:
                    f1:02:f3:70:ef:e7:73:4a:41:2e:b0:b7:8c:cb:7b:
                    05:46:d7:ef:1c:8f:27:2d:c2:fe:26:3c:06:ad:2f:
                    cb:83
                Exponent: 65537 (0x10001)
        X509v3 extensions:
            X509v3 Basic Constraints: critical
                CA:FALSE
            X509v3 Key Usage: critical
                Digital Signature, Key Encipherment
            X509v3 Extended Key Usage: critical
                TLS Web Server Authentication
            X509v3 Subject Key Identifier: 
                98:03:0F:65:1A:34:A9:E1:09:1B:EC:D0:ED:A8:11:E6:AE:85:1F:2C
            X509v3 Authority Key Identifier: 
                keyid:3D:80:E3:BB:94:97:DB:DD:DF:C8:1A:23:8A:CB:2B:C1:3D:1A:E6:85

            X509v3 Subject Alternative Name: 
                DNS:localhost, IP Address:127.0.0.1, IP Address:0:0:0:0:0:0:0:1
    Signature Algorithm: sha256WithRSAEncryption
         a6:01:8e:6f:0f:db:35:1f:a2:03:f5:39:ca:16:5f:e5:5a:0f:
         7e:f1:24:8a:b9:6f:78:c1:2c:f7:3a:07:f1:27:46:47:e0:98:
         a1:ec:23:38:30:b9:bc:66:ac:17:06:36:48:ad:5d:1d:b4:a2:
         c1:2c:08:55:ff:00:01:04:26:60:38:a6:13:52:7b:d3:88:8a:
         b1:1f:a4:cd:14:9b:c8:04:77:01:72:6d:fe:b5:8c:3a:25:e2:
         2b:83:73:4b:2e:c6:6f:20:8b:00:c7:3b:2e:de:62:e9:74:81:
         c6:a5:f5:b1:f9:db:b9:58:f9:7c:a2:3f:4e:46:93:ae:af:75:
         01:77:ea:34:4e:82:dc:d3:53:39:c0:b0:f9:8a:86:8d:f5:f2:
         c3:a0:fa:e4:a9:b3:2c:33:ba:78:d5:ef:12:05:33:4f:29:9b:
         88:41:52:73:5a:17:7e:bc:66:d0:dc:c7:14:6d:a5:99:78:67:
         81:36:76:29:63:de:76:d4:eb:ca:5c:82:1b:ae:7d:80:ed:32:
         69:b0:b7:7a:1d:e1:00:a8:b1:95:d3:4d:d5:e2:8c:f4:30:a7:
         da:79:bd:f5:bb:7a:8d:c5:ec:1c:16:32:58:92:ad:fc:1c:83:
         49:ca:8c:f9:6d:d4:f7:2c:98:1a:25:47:36:16:4f:15:46:ea:
         71:78:f1:51
-----BEGIN CERTIFICATE-----
MIID1TCCAr2gAwIBAgIBAjANBgkqhkiG9w0BAQsFADBWMQswCQYDVQQGEwJERTEU
MBIGA1UECgwLcHl0aG9uLWxkYXAxEzARBgNVBAsMCnNsYXBkLXRlc3QxHDAaBgNV
BAMME1B5dGhvbiBMREFQIFRlc3QgQ0EwHhcNMTcxMTI4MTM0OTI4WhcNMjExMTI4
MTM0OTI4WjBcMQswCQYDVQQGEwJERTEUMBIGA1UECgwLcHl0aG9uLWxkYXAxEzAR
BgNVBAsMCnNsYXBkLXRlc3QxIjAgBgNVBAMMGXNlcnZlciBjZXJ0IGZvciBsb2Nh
bGhvc3QwggEiMA0GCSqGSIb3DQEBAQUAA4IBDwAwggEKAoIBAQDTJOAnZdPnCTmy
gkI5XUHsuk1xL4eePxMcV+8HYMfQh+b354CygQnRcjj38uQ6S70mOIyCrTWKNrec
VrnV0xu4o16AkSRrkN0AVpfWk0ae2GaccDV+o82x+NBStfYNXW2xZ1aZIyFplGTU
yxQCpsU4yCX7RM7Ywq3fM6b8eoR2jRNGC/uMdNN/7WJkHfhJFOYFpPJ6vKOlR3PP
qzkj8WRu/ill63+phHA3UEUweKG4DoaP85M0WqHW4Kvp0A4sI5uPYI2lPrDqUf6L
Wc22gUpcFFNDReWYcxLobCsAeT4SqvEC83Dv53NKQS6wt4zLewVG1+8cjyctwv4m
PAatL8uDAgMBAAGjgacwgaQwDAYDVR0TAQH/BAIwADAOBgNVHQ8BAf8EBAMCBaAw
FgYDVR0lAQH/BAwwCgYIKwYBBQUHAwEwHQYDVR0OBBYEFJgDD2UaNKnhCRvs0O2o
EeauhR8sMB8GA1UdIwQYMBaAFD2A47uUl9vd38gaI4rLK8E9GuaFMCwGA1UdEQQl
MCOCCWxvY2FsaG9zdIcEfwAAAYcQAAAAAAAAAAAAAAAAAAAAATANBgkqhkiG9w0B
AQsFAAOCAQEApgGObw/bNR+iA/U5yhZf5VoPfvEkirlveMEs9zoH8SdGR+CYoewj
ODC5vGasFwY2SK1dHbSiwSwIVf8AAQQmYDimE1J704iKsR+kzRSbyAR3AXJt/rWM
OiXiK4NzSy7GbyCLAMc7Lt5i6XSBxqX1sfnbuVj5fKI/TkaTrq91AXfqNE6C3NNT
OcCw+YqGjfXyw6D65KmzLDO6eNXvEgUzTymbiEFSc1oXfrxm0NzHFG2lmXhngTZ2
KWPedtTrylyCG659gO0yabC3eh3hAKixldNN1eKM9DCn2nm99bt6jcXsHBYyWJKt
/ByDScqM+W3U9yyYGiVHNhZPFUbqcXjxUQ==
-----END CERTIFICATE-----
